target datalayout = "e-m:e-p270:32:32-p271:32:32-p272:64:64-i64:64-i128:128-f80:128-n8:16:32:64-S128"
target triple = "x86_64-pc-linux-gnu"

%struct.AVCodecParameters = type { i32, i32, i32, ptr, i32, ptr, i32, i32, i64, i32, i32, i32, i32, i32, i32, %struct.AVRational, %struct.AVRational, i32, i32, i32, i32, i32, i32, i32, %struct.AVChannelLayout, i32, i32, i32, i32, i32, i32 }
%struct.AVRational = type { i32, i32 }
%struct.AVChannelLayout = type { i32, i32, %union.anon, ptr }
%union.anon = type { i64 }
%struct.AVStream = type { ptr, i32, i32, ptr, ptr, %struct.AVRational, i64, i64, i64, i32, i32, %struct.AVRational, ptr, %struct.AVRational, %struct.AVPacket, i32, %struct.AVRational, i32 }
%struct.AVPacket = type { ptr, i64, i64, ptr, i32, i32, i32, ptr, i32, i64, i64, ptr, ptr, %struct.AVRational }

; Function Attrs: nounwind uwtable
define i32 @ff_get_bmp_header(ptr noundef %0, ptr noundef %1, ptr noundef %2) #0 {
  %4 = alloca ptr, align 8
  %5 = alloca ptr, align 8
  %6 = alloca ptr, align 8
  %7 = alloca i32, align 4
  %8 = alloca i32, align 4
  store ptr %0, ptr %4, align 8, !tbaa !4
  store ptr %1, ptr %5, align 8, !tbaa !42
  store ptr %2, ptr %6, align 8, !tbaa !44
  call void @llvm.lifetime.start.p0(i64 4, ptr %7) #6
  call void @llvm.lifetime.start.p0(i64 4, ptr %8) #6
  %9 = load ptr, ptr %4, align 8, !tbaa !4
  %10 = call i32 @avio_rl32(ptr noundef %9)
  store i32 %10, ptr %8, align 4, !tbaa !11
  %11 = load ptr, ptr %6, align 8, !tbaa !44
  %12 = icmp ne ptr %11, null
  br i1 %12, label %13, label %16

13:                                               ; preds = %3
  %14 = load i32, ptr %8, align 4, !tbaa !11
  %15 = load ptr, ptr %6, align 8, !tbaa !44
  store i32 %14, ptr %15, align 4, !tbaa !11
  br label %16

16:                                               ; preds = %13, %3
  %17 = load ptr, ptr %4, align 8, !tbaa !4
  %18 = call i32 @avio_rl32(ptr noundef %17)
  %19 = load ptr, ptr %5, align 8, !tbaa !42
  %20 = getelementptr inbounds nuw %struct.AVStream, ptr %19, i32 0, i32 3
  %21 = load ptr, ptr %20, align 8, !tbaa !46
  %22 = getelementptr inbounds nuw %struct.AVCodecParameters, ptr %21, i32 0, i32 13
  store i32 %18, ptr %22, align 8, !tbaa !52
  %23 = load ptr, ptr %4, align 8, !tbaa !4
  %24 = call i32 @avio_rl32(ptr noundef %23)
  %25 = load ptr, ptr %5, align 8, !tbaa !42
  %26 = getelementptr inbounds nuw %struct.AVStream, ptr %25, i32 0, i32 3
  %27 = load ptr, ptr %26, align 8, !tbaa !46
  %28 = getelementptr inbounds nuw %struct.AVCodecParameters, ptr %27, i32 0, i32 14
  store i32 %24, ptr %28, align 4, !tbaa !53
  %29 = load ptr, ptr %4, align 8, !tbaa !4
  %30 = call i32 @avio_rl16(ptr noundef %29)
  %31 = load ptr, ptr %4, align 8, !tbaa !4
  %32 = call i32 @avio_rl16(ptr noundef %31)
  %33 = load ptr, ptr %5, align 8, !tbaa !42
  %34 = getelementptr inbounds nuw %struct.AVStream, ptr %33, i32 0, i32 3
  %35 = load ptr, ptr %34, align 8, !tbaa !46
  %36 = getelementptr inbounds nuw %struct.AVCodecParameters, ptr %35, i32 0, i32 9
  store i32 %32, ptr %36, align 8, !tbaa !33
  %37 = load ptr, ptr %4, align 8, !tbaa !4
  %38 = call i32 @avio_rl32(ptr noundef %37)
  store i32 %38, ptr %7, align 4, !tbaa !11
  %39 = load ptr, ptr %4, align 8, !tbaa !4
  %40 = call i32 @avio_rl32(ptr noundef %39)
  %41 = load ptr, ptr %4, align 8, !tbaa !4
  %42 = call i32 @avio_rl32(ptr noundef %41)
  %43 = load ptr, ptr %4, align 8, !tbaa !4
  %44 = call i32 @avio_rl32(ptr noundef %43)
  %45 = load ptr, ptr %4, align 8, !tbaa !4
  %46 = call i32 @avio_rl32(ptr noundef %45)
  %47 = load ptr, ptr %4, align 8, !tbaa !4
  %48 = call i32 @avio_rl32(ptr noundef %47)
  %49 = load i32, ptr %7, align 4, !tbaa !11
  call void @llvm.lifetime.end.p0(i64 4, ptr %8) #6
  call void @llvm.lifetime.end.p0(i64 4, ptr %7) #6
  ret i32 %49
}