; Function Attrs: nounwind uwtable
define i32 @ff_get_bmp_header(ptr noundef %0, ptr noundef readonly captures(none) %1, ptr noundef writeonly captures(address_is_null) %2) local_unnamed_addr #0 {
  %4 = tail call i32 @avio_rl32(ptr noundef %0) #7
  %.not = icmp eq ptr %2, null
  br i1 %.not, label %6, label %5

5:                                                ; preds = %3
  store i32 %4, ptr %2, align 4, !tbaa !30
  br label %6

6:                                                ; preds = %5, %3
  %7 = tail call i32 @avio_rl32(ptr noundef %0) #7
  %8 = getelementptr inbounds nuw i8, ptr %1, i64 16
  %9 = load ptr, ptr %8, align 8, !tbaa !31
  %10 = getelementptr inbounds nuw i8, ptr %9, i64 72
  store i32 %7, ptr %10, align 8, !tbaa !38
  %11 = tail call i32 @avio_rl32(ptr noundef %0) #7
  %12 = load ptr, ptr %8, align 8, !tbaa !31
  %13 = getelementptr inbounds nuw i8, ptr %12, i64 76
  store i32 %11, ptr %13, align 4, !tbaa !39
  %14 = tail call i32 @avio_rl16(ptr noundef %0) #7
  %15 = tail call i32 @avio_rl16(ptr noundef %0) #7
  %16 = load ptr, ptr %8, align 8, !tbaa !31
  %17 = getelementptr inbounds nuw i8, ptr %16, i64 56
  store i32 %15, ptr %17, align 8, !tbaa !21
  %18 = tail call i32 @avio_rl32(ptr noundef %0) #7
  %19 = tail call i32 @avio_rl32(ptr noundef %0) #7
  %20 = tail call i32 @avio_rl32(ptr noundef %0) #7
  %21 = tail call i32 @avio_rl32(ptr noundef %0) #7
  %22 = tail call i32 @avio_rl32(ptr noundef %0) #7
  %23 = tail call i32 @avio_rl32(ptr noundef %0) #7
  ret i32 %18
}